; Function Attrs: nounwind uwtable
define internal void @ecx_freectx(ptr noundef %0) #0 {
  %2 = getelementptr inbounds nuw i8, ptr %0, i64 8
  %3 = load ptr, ptr %2, align 8, !tbaa !11
  tail call void @ossl_ecx_key_free(ptr noundef %3) #4
  %4 = getelementptr inbounds nuw i8, ptr %0, i64 16
  %5 = load ptr, ptr %4, align 8, !tbaa !10
  tail call void @ossl_ecx_key_free(ptr noundef %5) #4
  tail call void @CRYPTO_free(ptr noundef %0, ptr noundef nonnull @.str, i32 noundef 148) #4
  ret void
}